Certificate:
    Data:
        Version: 3 (0x2)
        Serial Number:
            4a:4c:ac:5f:d5:96:55:41:38:c8:5d:30:7c:bc:0b:e3
        Signature Algorithm: sha256WithRSAEncryption
        Issuer: O=Swaptacular Nodes Registry, OU=Accounting Authorities/serialNumber=1234abcd
        Validity
            Not Before: Jul 25 14:01:45 2023 GMT
            Not After : Jan 12 14:01:45 2121 GMT
        Subject: O=Swaptacular Nodes Registry, OU=Accounting Authorities/serialNumber=1234abcd
        Subject Public Key Info:
            Public Key Algorithm: rsaEncryption
                RSA Public-Key: (3072 bit)
                Modulus:
                    00:c5:a5:8a:db:16:a9:9d:df:54:d5:d0:f4:66:c6:
                    21:a7:f4:5f:22:94:4e:53:79:11:a0:62:f9:39:fb:
                    a8:4c:4b:b7:e3:27:0e:d2:a0:91:d9:72:96:d7:05:
                    c3:85:fb:90:42:18:04:1b:07:12:ef:04:07:70:6a:
                    2c:08:c3:58:07:b9:a0:22:d1:b3:f5:7b:16:14:8d:
                    a0:c5:38:23:75:de:f9:bf:93:e5:33:bc:10:3a:0a:
                    a9:ab:3f:8a:7e:8d:44:00:2f:97:58:eb:ec:85:ca:
                    55:f5:05:c2:47:64:b9:a6:96:95:ce:c6:07:c3:99:
                    0c:d9:0d:27:4a:94:4f:cd:21:fc:9b:98:17:1e:f2:
                    06:37:2d:02:13:bf:e0:38:2e:53:de:82:d4:d3:52:
                    9f:d2:66:3f:d6:a7:99:ec:6b:64:ca:80:12:cd:46:
                    b2:63:94:73:b8:43:1d:0c:8c:15:8f:93:7a:32:a4:
                    b1:07:c9:09:48:8b:c3:df:24:c6:e2:49:11:a8:f6:
                    76:28:6b:8c:ae:a2:4e:30:8e:54:47:2e:d2:84:cb:
                    82:c5:b4:44:bb:0b:c2:2f:4c:11:79:15:eb:e8:25:
                    a1:e9:bc:bb:e8:32:2a:a2:61:4c:c2:e9:e6:b7:fd:
                    4e:c2:d0:49:c6:63:49:64:6d:f2:b2:d7:4e:50:0c:
                    0a:35:51:60:46:ce:4a:b7:93:bd:4e:ce:0e:db:0a:
                    a0:00:bd:f3:4f:55:0e:39:99:59:00:0a:b0:ed:45:
                    6a:76:74:75:4b:f7:13:6a:99:91:a5:81:3f:18:3f:
                    42:7a:df:7a:3a:18:21:6a:61:98:a6:38:27:b0:bd:
                    ad:e6:41:95:1f:da:1e:00:60:01:ff:e7:12:b7:67:
                    1b:bb:bf:b1:97:43:80:7c:fa:56:65:96:af:32:c4:
                    01:c3:39:ac:70:90:7d:3b:30:4e:b6:5c:82:c6:00:
                    5a:4d:bb:c4:a9:7c:a2:98:f4:f0:41:1c:11:44:6e:
                    ac:f1:d2:98:00:c3:bf:25:a7:fd
                Exponent: 65537 (0x10001)
        X509v3 extensions:
            X509v3 Authority Key Identifier: 
                keyid:08:7B:E1:55:F4:CD:A7:9C:C2:A4:A9:FC:1D:82:F1:A9:53:0D:CE:A9

            X509v3 Basic Constraints: critical
                CA:FALSE
            X509v3 Extended Key Usage: 
                TLS Web Client Authentication, TLS Web Server Authentication
            X509v3 Key Usage: critical
                Digital Signature, Key Encipherment
            X509v3 Subject Key Identifier: 
                0A:A1:F9:0D:11:76:D7:32:64:43:A3:AE:9A:50:A3:7E:09:E2:25:F2
    Signature Algorithm: sha256WithRSAEncryption
         4c:1b:83:a2:61:ab:dc:b4:59:33:67:b7:25:f0:dc:03:ad:ee:
         04:85:0b:ba:e9:e9:2d:4b:be:9c:e6:7b:26:cb:f6:bb:7c:ac:
         57:3b:b4:cd:ad:9f:3f:e6:3e:f2:4a:f4:6b:1c:25:5e:f4:9d:
         2b:33:51:68:1f:b1:ac:25:69:4e:9d:00:7e:72:a3:78:7e:7a:
         7a:51:eb:de:0d:77:01:ee:df:47:5e:89:d6:26:cc:3b:72:02:
         07:ef:fe:26:4a:03:60:9d:0f:7e:16:91:37:f1:63:0a:ba:9c:
         41:51:17:25:87:63:97:c3:8f:de:ba:6d:9c:b6:4f:db:c8:bd:
         63:0f:22:88:80:75:b1:af:d0:52:df:a1:d3:15:b9:d7:69:d1:
         3a:fb:aa:24:fa:ee:82:cd:ac:c2:68:f3:60:0c:cb:fd:99:f9:
         67:6b:95:92:a0:d7:50:ed:38:59:61:91:fc:78:84:02:5f:7c:
         55:42:9c:c1:a3:26:fe:1b:d4:e4:09:aa:85:f8:a0:62:14:50:
         6d:5a:7d:61:ca:ac:6c:62:9d:99:dc:ad:5c:55:cb:41:7a:21:
         5a:c8:27:94:1d:ad:dd:79:ce:d8:42:34:dd:99:04:ad:8d:7a:
         dd:64:74:62:f4:b4:e3:66:db:fa:01:26:c7:ad:cc:c3:27:88:
         7a:f9:2f:91:0a:cb:8d:6b:2c:c2:a9:c2:c1:7e:f4:cb:f6:29:
         77:2b:c4:4e:e6:04:00:d7:0f:9d:71:66:02:a0:7c:60:31:32:
         f4:40:21:46:e9:c7:c7:71:71:4a:9c:39:b0:64:50:64:6d:83:
         7e:05:b8:dc:c3:8a:eb:0a:a6:09:e8:52:3b:9c:40:5c:fc:bf:
         e6:fe:70:39:07:43:95:f7:98:e8:92:32:79:7e:e6:12:4f:d0:
         1e:5a:c0:70:a8:5e:8a:61:1f:0e:f8:f1:a6:ba:08:04:18:37:
         7c:de:7b:dd:74:db:82:54:1a:78:d6:19:8b:91:e4:4a:99:4c:
         e5:60:33:98:0b:75
-----BEGIN CERTIFICATE-----
MIIEvTCCAyWgAwIBAgIQSkysX9WWVUE4yF0wfLwL4zANBgkqhkiG9w0BAQsFADBZ
MSMwIQYDVQQKDBpTd2FwdGFjdWxhciBOb2RlcyBSZWdpc3RyeTEfMB0GA1UECwwW
QWNjb3VudGluZyBBdXRob3JpdGllczERMA8GA1UEBRMIMTIzNGFiY2QwIBcNMjMw
NzI1MTQwMTQ1WhgPMjEyMTAxMTIxNDAxNDVaMFkxIzAhBgNVBAoMGlN3YXB0YWN1
bGFyIE5vZGVzIFJlZ2lzdHJ5MR8wHQYDVQQLDBZBY2NvdW50aW5nIEF1dGhvcml0
aWVzMREwDwYDVQQFEwgxMjM0YWJjZDCCAaIwDQYJKoZIhvcNAQEBBQADggGPADCC
AYoCggGBAMWlitsWqZ3fVNXQ9GbGIaf0XyKUTlN5EaBi+Tn7qExLt+MnDtKgkdly
ltcFw4X7kEIYBBsHEu8EB3BqLAjDWAe5oCLRs/V7FhSNoMU4I3Xe+b+T5TO8EDoK
qas/in6NRAAvl1jr7IXKVfUFwkdkuaaWlc7GB8OZDNkNJ0qUT80h/JuYFx7yBjct
AhO/4DguU96C1NNSn9JmP9anmexrZMqAEs1GsmOUc7hDHQyMFY+TejKksQfJCUiL
w98kxuJJEaj2dihrjK6iTjCOVEcu0oTLgsW0RLsLwi9MEXkV6+gloem8u+gyKqJh
TMLp5rf9TsLQScZjSWRt8rLXTlAMCjVRYEbOSreTvU7ODtsKoAC9809VDjmZWQAK
sO1FanZ0dUv3E2qZkaWBPxg/QnrfejoYIWphmKY4J7C9reZBlR/aHgBgAf/nErdn
G7u/sZdDgHz6VmWWrzLEAcM5rHCQfTswTrZcgsYAWk27xKl8opj08EEcEURurPHS
mADDvyWn/QIDAQABo38wfTAfBgNVHSMEGDAWgBQIe+FV9M2nnMKkqfwdgvGpUw3O
qTAMBgNVHRMBAf8EAjAAMB0GA1UdJQQWMBQGCCsGAQUFBwMCBggrBgEFBQcDATAO
BgNVHQ8BAf8EBAMCBaAwHQYDVR0OBBYEFAqh+Q0RdtcyZEOjrppQo34J4iXyMA0G
CSqGSIb3DQEBCwUAA4IBgQBMG4OiYavctFkzZ7cl8NwDre4EhQu66ektS76c5nsm
y/a7fKxXO7TNrZ8/5j7ySvRrHCVe9J0rM1FoH7GsJWlOnQB+cqN4fnp6UeveDXcB
7t9HXonWJsw7cgIH7/4mSgNgnQ9+FpE38WMKupxBURclh2OXw4/eum2ctk/byL1j
DyKIgHWxr9BS36HTFbnXadE6+6ok+u6CzazCaPNgDMv9mflna5WSoNdQ7ThZYZH8
eIQCX3xVQpzBoyb+G9TkCaqF+KBiFFBtWn1hyqxsYp2Z3K1cVctBeiFayCeUHa3d
ec7YQjTdmQStjXrdZHRi9LTjZtv6ASbHrczDJ4h6+S+RCsuNayzCqcLBfvTL9il3
K8RO5gQA1w+dcWYCoHxgMTL0QCFG6cfHcXFKnDmwZFBkbYN+Bbjcw4rrCqYJ6FI7
nEBc/L/m/nA5B0OV95jokjJ5fuYST9AeWsBwqF6KYR8O+PGmuggEGDd83nvddNuC
VBp41hmLkeRKmUzlYDOYC3U=
-----END CERTIFICATE-----
