Certificate:
    Data:
        Version: 3 (0x2)
        Serial Number:
            4a:4c:ac:5f:d5:96:55:41:38:c8:5d:30:7c:bc:0b:e0
        Signature Algorithm: sha256WithRSAEncryption
        Issuer: O=Swaptacular Nodes Registry, OU=Accounting Authorities/serialNumber=1234abcd
        Validity
            Not Before: Jul 25 09:20:08 2023 GMT
            Not After : Jul 24 09:20:08 2024 GMT
        Subject: O=Swaptacular Nodes Registry, OU=Accounting Authorities/serialNumber=1234abcd
        Subject Public Key Info:
            Public Key Algorithm: rsaEncryption
                RSA Public-Key: (3072 bit)
                Modulus:
                    00:ba:ec:7a:45:02:6d:cb:4f:2f:f6:fa:d0:c0:f9:
                    a7:0f:e4:89:43:df:6e:51:f0:c2:a4:fa:46:4f:d7:
                    62:7a:a5:06:1b:e2:a1:14:6e:01:42:1e:e7:45:d4:
                    aa:1f:0e:b3:44:7a:62:98:29:ce:b3:f0:47:50:52:
                    53:65:26:0d:cb:02:f9:31:29:38:7d:57:1c:30:96:
                    1e:7c:cd:3b:1b:76:a5:de:17:b0:08:e7:ec:d7:ac:
                    f7:1e:40:0b:de:31:30:d9:b5:05:97:c2:82:99:03:
                    44:d2:b1:f8:d3:03:38:00:d4:03:33:d0:a0:18:b8:
                    c0:ac:b3:67:58:86:d0:ba:6e:a1:1b:2f:3e:f4:64:
                    59:7e:40:6d:a4:fb:59:95:ad:57:9a:22:06:ee:21:
                    f7:89:dc:20:f6:28:77:42:df:d0:90:38:f0:2b:a0:
                    31:12:0b:8b:bb:1b:f7:40:55:c9:dc:ec:9b:b6:dd:
                    56:af:53:cb:5e:08:23:88:ef:dd:dc:59:c5:55:45:
                    0a:f0:aa:b5:5d:27:24:7b:88:4c:6e:3b:e1:3a:47:
                    30:59:60:e7:1b:d9:61:b7:e7:ec:0e:aa:c6:80:cb:
                    4b:7f:bd:19:4a:ad:df:79:79:89:64:49:f0:17:57:
                    0f:8e:15:de:9f:c7:d5:30:40:28:07:e3:82:c0:72:
                    2c:90:4e:af:8f:aa:6a:9a:b7:dc:1f:01:9f:6c:3d:
                    bf:79:ef:b4:94:de:c7:fb:f5:f2:cd:e2:5d:04:87:
                    33:e6:25:57:39:af:74:c2:1a:0b:5a:38:72:a6:7b:
                    36:88:ce:3c:cf:5c:24:9b:e4:3d:77:c7:4d:25:11:
                    5a:b4:39:b7:22:3a:64:07:8a:5b:74:a0:6b:71:36:
                    9a:0b:eb:7a:13:24:76:b9:d8:b0:b4:2f:a2:be:7f:
                    2b:05:5d:e3:82:72:9c:18:60:68:9a:d6:ca:04:3e:
                    d0:04:a0:c8:e0:63:8c:3a:3c:9d:87:bb:11:a7:6c:
                    b1:c0:20:01:6c:e3:2d:e3:f7:d5
                Exponent: 65537 (0x10001)
        X509v3 extensions:
            X509v3 Authority Key Identifier: 
                keyid:08:7B:E1:55:F4:CD:A7:9C:C2:A4:A9:FC:1D:82:F1:A9:53:0D:CE:A9

            X509v3 Basic Constraints: critical
                CA:FALSE
            X509v3 Extended Key Usage: 
                TLS Web Client Authentication, TLS Web Server Authentication
            X509v3 Key Usage: critical
                Digital Signature, Key Encipherment
            X509v3 Subject Key Identifier: 
                39:64:E9:D1:4B:5F:A7:88:F4:06:3B:4D:53:37:70:BC:C7:A2:ED:D2
    Signature Algorithm: sha256WithRSAEncryption
         35:a1:35:53:46:65:ab:7d:b3:70:9e:f9:e9:3c:4a:81:ee:d0:
         a3:e4:8a:f6:60:a1:f4:2e:e3:0e:fc:02:c4:d0:2c:b0:74:83:
         78:1f:63:d4:70:d2:d7:5c:f3:ce:80:ef:3e:a9:1f:35:af:fa:
         e6:6f:47:47:30:4b:7e:f9:57:61:fc:9f:a4:cc:6b:f2:c0:f7:
         74:e8:14:9f:88:3d:e9:a4:7f:a6:50:aa:ba:75:b5:72:d7:2b:
         0f:25:fd:bc:f9:fb:28:ea:8e:2c:34:80:a0:0e:7f:2b:ae:c3:
         45:ca:a7:7b:7c:0e:78:71:26:0c:c7:1d:b3:40:bf:cc:d7:be:
         a0:d2:62:5a:7f:d2:64:41:d3:cc:f3:4a:da:f2:74:49:17:06:
         ca:ba:3a:bc:05:69:44:6c:02:4e:c8:fd:f3:c0:27:78:35:23:
         1f:d8:c6:5a:eb:d1:a2:61:08:7c:ee:79:c7:7f:50:bc:2c:29:
         63:25:e8:76:9f:b7:55:11:06:fe:54:4e:af:fd:ab:1d:6f:0a:
         59:37:15:0f:fc:87:f9:da:9d:9a:aa:cf:ba:c8:8c:1d:4c:a3:
         e1:d7:73:c8:ac:45:b1:9b:90:e3:42:6b:86:d7:13:1f:a1:6a:
         bf:1c:65:2a:ee:d7:ef:ad:7b:52:a5:c5:d4:3c:50:cb:de:a1:
         fe:48:50:39:83:07:2d:c0:29:d4:f4:8b:cd:65:b4:e6:d6:82:
         f7:e6:7b:52:45:10:fd:7d:33:6c:95:4d:2a:1f:ef:f3:fa:9f:
         54:e3:73:f9:a0:c1:d0:42:00:46:7e:e4:ba:53:44:86:7f:f1:
         c6:5b:3c:74:42:7d:ee:9a:bb:42:d4:79:f3:c1:b7:80:5c:72:
         a3:0a:53:ac:1c:42:27:75:70:74:49:4b:e2:a9:bf:63:e7:9b:
         7c:b3:de:ef:c7:4a:34:3e:34:01:3f:81:38:88:be:d6:ad:2f:
         30:53:71:11:fc:ce:20:3b:5b:97:8c:2f:51:05:6b:e6:81:51:
         64:59:45:30:fe:8b
-----BEGIN CERTIFICATE-----
MIIEuzCCAyOgAwIBAgIQSkysX9WWVUE4yF0wfLwL4DANBgkqhkiG9w0BAQsFADBZ
MSMwIQYDVQQKDBpTd2FwdGFjdWxhciBOb2RlcyBSZWdpc3RyeTEfMB0GA1UECwwW
QWNjb3VudGluZyBBdXRob3JpdGllczERMA8GA1UEBRMIMTIzNGFiY2QwHhcNMjMw
NzI1MDkyMDA4WhcNMjQwNzI0MDkyMDA4WjBZMSMwIQYDVQQKDBpTd2FwdGFjdWxh
ciBOb2RlcyBSZWdpc3RyeTEfMB0GA1UECwwWQWNjb3VudGluZyBBdXRob3JpdGll
czERMA8GA1UEBRMIMTIzNGFiY2QwggGiMA0GCSqGSIb3DQEBAQUAA4IBjwAwggGK
AoIBgQC67HpFAm3LTy/2+tDA+acP5IlD325R8MKk+kZP12J6pQYb4qEUbgFCHudF
1KofDrNEemKYKc6z8EdQUlNlJg3LAvkxKTh9Vxwwlh58zTsbdqXeF7AI5+zXrPce
QAveMTDZtQWXwoKZA0TSsfjTAzgA1AMz0KAYuMCss2dYhtC6bqEbLz70ZFl+QG2k
+1mVrVeaIgbuIfeJ3CD2KHdC39CQOPAroDESC4u7G/dAVcnc7Ju23VavU8teCCOI
793cWcVVRQrwqrVdJyR7iExuO+E6RzBZYOcb2WG35+wOqsaAy0t/vRlKrd95eYlk
SfAXVw+OFd6fx9UwQCgH44LAciyQTq+Pqmqat9wfAZ9sPb9577SU3sf79fLN4l0E
hzPmJVc5r3TCGgtaOHKmezaIzjzPXCSb5D13x00lEVq0ObciOmQHilt0oGtxNpoL
63oTJHa52LC0L6K+fysFXeOCcpwYYGia1soEPtAEoMjgY4w6PJ2HuxGnbLHAIAFs
4y3j99UCAwEAAaN/MH0wHwYDVR0jBBgwFoAUCHvhVfTNp5zCpKn8HYLxqVMNzqkw
DAYDVR0TAQH/BAIwADAdBgNVHSUEFjAUBggrBgEFBQcDAgYIKwYBBQUHAwEwDgYD
VR0PAQH/BAQDAgWgMB0GA1UdDgQWBBQ5ZOnRS1+niPQGO01TN3C8x6Lt0jANBgkq
hkiG9w0BAQsFAAOCAYEANaE1U0Zlq32zcJ756TxKge7Qo+SK9mCh9C7jDvwCxNAs
sHSDeB9j1HDS11zzzoDvPqkfNa/65m9HRzBLfvlXYfyfpMxr8sD3dOgUn4g96aR/
plCqunW1ctcrDyX9vPn7KOqOLDSAoA5/K67DRcqne3wOeHEmDMcds0C/zNe+oNJi
Wn/SZEHTzPNK2vJ0SRcGyro6vAVpRGwCTsj988AneDUjH9jGWuvRomEIfO55x39Q
vCwpYyXodp+3VREG/lROr/2rHW8KWTcVD/yH+dqdmqrPusiMHUyj4ddzyKxFsZuQ
40JrhtcTH6FqvxxlKu7X7617UqXF1DxQy96h/khQOYMHLcAp1PSLzWW05taC9+Z7
UkUQ/X0zbJVNKh/v8/qfVONz+aDB0EIARn7kulNEhn/xxls8dEJ97pq7QtR588G3
gFxyowpTrBxCJ3VwdElL4qm/Y+ebfLPe78dKND40AT+BOIi+1q0vMFNxEfzOIDtb
l4wvUQVr5oFRZFlFMP6L
-----END CERTIFICATE-----
